target datalayout = "e-m:e-p270:32:32-p271:32:32-p272:64:64-i64:64-i128:128-f80:128-n8:16:32:64-S128"
target triple = "x86_64-pc-linux-gnu"

%struct._zend_execute_data = type { ptr, ptr, ptr, ptr, %struct._zval_struct, ptr, ptr, ptr, ptr }
%struct._zval_struct = type { %union._zend_value, %union.anon, %union.anon.2 }
%union._zend_value = type { i64 }
%union.anon = type { i32 }
%union.anon.2 = type { i32 }
%struct._zend_string = type { %struct._zend_refcounted_h, i64, i64, [1 x i8] }
%struct._zend_refcounted_h = type { i32, %union.anon.3 }
%union.anon.3 = type { i32 }
%struct.stat = type { i64, i64, i64, i32, i32, i32, i32, i64, i64, i64, i64, %struct.timespec, %struct.timespec, %struct.timespec, [3 x i64] }
%struct.timespec = type { i64, i64 }

@.str = private unnamed_addr constant [3 x i8] c"%s\00", align 1

; Function Attrs: nounwind uwtable
define hidden void @zif_linkinfo(ptr noundef %0, ptr noundef %1) #0 {
  %3 = alloca ptr, align 8
  %4 = alloca ptr, align 8
  %5 = alloca i1, align 1
  %6 = alloca ptr, align 8
  %7 = alloca ptr, align 8
  %8 = alloca i8, align 1
  %9 = alloca i32, align 4
  %10 = alloca i8, align 1
  %11 = alloca ptr, align 8
  %12 = alloca i64, align 8
  %13 = alloca ptr, align 8
  %14 = alloca ptr, align 8
  %15 = alloca i8, align 1
  %16 = alloca i32, align 4
  %17 = alloca i1, align 1
  %18 = alloca ptr, align 8
  %19 = alloca ptr, align 8
  %20 = alloca i8, align 1
  %21 = alloca i32, align 4
  %22 = alloca i1, align 1
  %23 = alloca ptr, align 8
  %24 = alloca ptr, align 8
  %25 = alloca ptr, align 8
  %26 = alloca i8, align 1
  %27 = alloca i32, align 4
  %28 = alloca ptr, align 8
  %29 = alloca ptr, align 8
  %30 = alloca ptr, align 8
  %31 = alloca ptr, align 8
  %32 = alloca ptr, align 8
  %33 = alloca i64, align 8
  %34 = alloca %struct.stat, align 8
  %35 = alloca i32, align 4
  %36 = alloca i32, align 4
  %37 = alloca i32, align 4
  %38 = alloca i32, align 4
  %39 = alloca i32, align 4
  %40 = alloca i32, align 4
  %41 = alloca ptr, align 8
  %42 = alloca ptr, align 8
  %43 = alloca i32, align 4
  %44 = alloca ptr, align 8
  %45 = alloca i8, align 1
  %46 = alloca i8, align 1
  %47 = alloca i32, align 4
  %48 = alloca ptr, align 8
  %49 = alloca ptr, align 8
  store ptr %0, ptr %29, align 8
  store ptr %1, ptr %30, align 8
  call void @llvm.memset.p0.i64(ptr align 8 %34, i8 0, i64 144, i1 false)
  br label %50

50:                                               ; preds = %2
  store i32 0, ptr %36, align 4
  store i32 1, ptr %37, align 4
  store i32 1, ptr %38, align 4
  %51 = load ptr, ptr %29, align 8
  %52 = getelementptr inbounds %struct._zend_execute_data, ptr %51, i32 0, i32 4
  %53 = getelementptr inbounds %struct._zval_struct, ptr %52, i32 0, i32 2
  %54 = load i32, ptr %53, align 4
  store i32 %54, ptr %39, align 4
  store i32 0, ptr %40, align 4
  store ptr null, ptr %42, align 8
  store i32 0, ptr %43, align 4
  store ptr null, ptr %44, align 8
  store i8 0, ptr %45, align 1
  store i8 0, ptr %46, align 1
  store i32 0, ptr %47, align 4
  br label %55

55:                                               ; preds = %50
  %56 = load i32, ptr %39, align 4
  %57 = load i32, ptr %37, align 4
  %58 = icmp ult i32 %56, %57
  %59 = xor i1 %58, true
  %60 = xor i1 %59, true
  %61 = zext i1 %60 to i32
  %62 = sext i32 %61 to i64
  %63 = icmp ne i64 %62, 0
  br i1 %63, label %73, label %64

64:                                               ; preds = %55
  %65 = load i32, ptr %39, align 4
  %66 = load i32, ptr %38, align 4
  %67 = icmp ugt i32 %65, %66
  %68 = xor i1 %67, true
  %69 = xor i1 %68, true
  %70 = zext i1 %69 to i32
  %71 = sext i32 %70 to i64
  %72 = icmp ne i64 %71, 0
  br i1 %72, label %73, label %76

73:                                               ; preds = %64, %55
  %74 = load i32, ptr %37, align 4
  %75 = load i32, ptr %38, align 4
  call void @zend_wrong_parameters_count_error(i32 noundef %74, i32 noundef %75)
  store i32 1, ptr %47, align 4
  br label %233

76:                                               ; preds = %64
  %77 = load ptr, ptr %29, align 8
  %78 = getelementptr inbounds %struct._zval_struct, ptr %77, i64 4
  store ptr %78, ptr %41, align 8
  %79 = load i32, ptr %40, align 4
  %80 = add i32 %79, 1
  store i32 %80, ptr %40, align 4
  %81 = load i32, ptr %40, align 4
  %82 = load i32, ptr %37, align 4
  %83 = icmp ule i32 %81, %82
  br i1 %83, label %89, label %84

84:                                               ; preds = %76
  %85 = load i8, ptr %46, align 1
  %86 = trunc i8 %85 to i1
  %87 = zext i1 %86 to i32
  %88 = icmp eq i32 %87, 1
  br label %89

89:                                               ; preds = %84, %76
  %90 = phi i1 [ true, %76 ], [ %88, %84 ]
  call void @llvm.assume(i1 %90)
  %91 = load i32, ptr %40, align 4
  %92 = load i32, ptr %37, align 4
  %93 = icmp ugt i32 %91, %92
  br i1 %93, label %99, label %94

94:                                               ; preds = %89
  %95 = load i8, ptr %46, align 1
  %96 = trunc i8 %95 to i1
  %97 = zext i1 %96 to i32
  %98 = icmp eq i32 %97, 0
  br label %99

99:                                               ; preds = %94, %89
  %100 = phi i1 [ true, %89 ], [ %98, %94 ]
  call void @llvm.assume(i1 %100)
  %101 = load i8, ptr %46, align 1
  %102 = trunc i8 %101 to i1
  br i1 %102, label %103, label %114

103:                                              ; preds = %99
  %104 = load i32, ptr %40, align 4
  %105 = load i32, ptr %39, align 4
  %106 = icmp ugt i32 %104, %105
  %107 = xor i1 %106, true
  %108 = xor i1 %107, true
  %109 = zext i1 %108 to i32
  %110 = sext i32 %109 to i64
  %111 = icmp ne i64 %110, 0
  br i1 %111, label %112, label %113

112:                                              ; preds = %103
  br label %233

113:                                              ; preds = %103
  br label %114

114:                                              ; preds = %113, %99
  %115 = load ptr, ptr %41, align 8
  %116 = getelementptr inbounds %struct._zval_struct, ptr %115, i32 1
  store ptr %116, ptr %41, align 8
  %117 = load ptr, ptr %41, align 8
  store ptr %117, ptr %42, align 8
  %118 = load ptr, ptr %42, align 8
  %119 = load i32, ptr %40, align 4
  store ptr %118, ptr %23, align 8
  store ptr %31, ptr %24, align 8
  store ptr %33, ptr %25, align 8
  store i8 0, ptr %26, align 1
  store i32 %119, ptr %27, align 4
  %120 = load ptr, ptr %23, align 8
  %121 = load i8, ptr %26, align 1
  %122 = trunc i8 %121 to i1
  %123 = load i32, ptr %27, align 4
  store ptr %120, ptr %18, align 8
  store ptr %28, ptr %19, align 8
  %124 = zext i1 %122 to i8
  store i8 %124, ptr %20, align 1
  store i32 %123, ptr %21, align 4
  %125 = load ptr, ptr %18, align 8
  %126 = load ptr, ptr %19, align 8
  %127 = load i8, ptr %20, align 1
  %128 = trunc i8 %127 to i1
  %129 = load i32, ptr %21, align 4
  store ptr %125, ptr %13, align 8
  store ptr %126, ptr %14, align 8
  %130 = zext i1 %128 to i8
  store i8 %130, ptr %15, align 1
  store i32 %129, ptr %16, align 4
  %131 = load ptr, ptr %13, align 8
  %132 = load ptr, ptr %14, align 8
  %133 = load i8, ptr %15, align 1
  %134 = trunc i8 %133 to i1
  %135 = load i32, ptr %16, align 4
  store ptr %131, ptr %6, align 8
  store ptr %132, ptr %7, align 8
  %136 = zext i1 %134 to i8
  store i8 %136, ptr %8, align 1
  store i32 %135, ptr %9, align 4
  store i8 0, ptr %10, align 1
  %137 = load ptr, ptr %6, align 8
  store ptr %137, ptr %3, align 8
  %138 = load ptr, ptr %3, align 8
  %139 = getelementptr inbounds %struct._zval_struct, ptr %138, i32 0, i32 1
  %140 = load i8, ptr %139, align 8
  %141 = zext i8 %140 to i32
  %142 = icmp eq i32 %141, 6
  br i1 %142, label %143, label %147

143:                                              ; preds = %114
  %144 = load ptr, ptr %6, align 8
  %145 = load ptr, ptr %144, align 8
  %146 = load ptr, ptr %7, align 8
  store ptr %145, ptr %146, align 8
  br label %172

147:                                              ; preds = %114
  %148 = load i8, ptr %8, align 1
  %149 = trunc i8 %148 to i1
  br i1 %149, label %150, label %159

150:                                              ; preds = %147
  %151 = load ptr, ptr %6, align 8
  store ptr %151, ptr %4, align 8
  %152 = load ptr, ptr %4, align 8
  %153 = getelementptr inbounds %struct._zval_struct, ptr %152, i32 0, i32 1
  %154 = load i8, ptr %153, align 8
  %155 = zext i8 %154 to i32
  %156 = icmp eq i32 %155, 1
  br i1 %156, label %157, label %159

157:                                              ; preds = %150
  %158 = load ptr, ptr %7, align 8
  store ptr null, ptr %158, align 8
  br label %172

159:                                              ; preds = %150, %147
  %160 = load i8, ptr %10, align 1
  %161 = trunc i8 %160 to i1
  br i1 %161, label %162, label %167

162:                                              ; preds = %159
  %163 = load ptr, ptr %6, align 8
  %164 = load ptr, ptr %7, align 8
  %165 = load i32, ptr %9, align 4
  %166 = call zeroext i1 @zend_flf_parse_arg_str_slow(ptr noundef %163, ptr noundef %164, i32 noundef %165) #10
  store i1 %166, ptr %5, align 1
  br label %173

167:                                              ; preds = %159
  %168 = load ptr, ptr %6, align 8
  %169 = load ptr, ptr %7, align 8
  %170 = load i32, ptr %9, align 4
  %171 = call zeroext i1 @zend_parse_arg_str_slow(ptr noundef %168, ptr noundef %169, i32 noundef %170) #10
  store i1 %171, ptr %5, align 1
  br label %173

172:                                              ; preds = %157, %143
  store i1 true, ptr %5, align 1
  br label %173

173:                                              ; preds = %172, %167, %162
  %174 = load i1, ptr %5, align 1
  br i1 %174, label %175, label %191

175:                                              ; preds = %173
  %176 = load ptr, ptr %19, align 8
  %177 = load ptr, ptr %176, align 8
  %178 = icmp ne ptr %177, null
  br i1 %178, label %179, label %192

179:                                              ; preds = %175
  %180 = load ptr, ptr %19, align 8
  %181 = load ptr, ptr %180, align 8
  %182 = getelementptr inbounds %struct._zend_string, ptr %181, i32 0, i32 3
  %183 = load ptr, ptr %19, align 8
  %184 = load ptr, ptr %183, align 8
  %185 = getelementptr inbounds %struct._zend_string, ptr %184, i32 0, i32 2
  %186 = load i64, ptr %185, align 8
  store ptr %182, ptr %11, align 8
  store i64 %186, ptr %12, align 8
  %187 = load i64, ptr %12, align 8
  %188 = load ptr, ptr %11, align 8
  %189 = call i64 @strlen(ptr noundef %188) #11
  %190 = icmp ne i64 %187, %189
  br i1 %190, label %191, label %192

191:                                              ; preds = %179, %173
  store i1 false, ptr %17, align 1
  br label %193

192:                                              ; preds = %179, %175
  store i1 true, ptr %17, align 1
  br label %193

193:                                              ; preds = %192, %191
  %194 = load i1, ptr %17, align 1
  br i1 %194, label %196, label %195

195:                                              ; preds = %193
  store i1 false, ptr %22, align 1
  br label %215

196:                                              ; preds = %193
  %197 = load i8, ptr %26, align 1
  %198 = trunc i8 %197 to i1
  br i1 %198, label %199, label %206

199:                                              ; preds = %196
  %200 = load ptr, ptr %28, align 8
  %201 = icmp ne ptr %200, null
  %202 = xor i1 %201, true
  br i1 %202, label %203, label %206

203:                                              ; preds = %199
  %204 = load ptr, ptr %24, align 8
  store ptr null, ptr %204, align 8
  %205 = load ptr, ptr %25, align 8
  store i64 0, ptr %205, align 8
  br label %214

206:                                              ; preds = %199, %196
  %207 = load ptr, ptr %28, align 8
  %208 = getelementptr inbounds %struct._zend_string, ptr %207, i32 0, i32 3
  %209 = load ptr, ptr %24, align 8
  store ptr %208, ptr %209, align 8
  %210 = load ptr, ptr %28, align 8
  %211 = getelementptr inbounds %struct._zend_string, ptr %210, i32 0, i32 2
  %212 = load i64, ptr %211, align 8
  %213 = load ptr, ptr %25, align 8
  store i64 %212, ptr %213, align 8
  br label %214

214:                                              ; preds = %206, %203
  store i1 true, ptr %22, align 1
  br label %215

215:                                              ; preds = %214, %195
  %216 = load i1, ptr %22, align 1
  %217 = xor i1 %216, true
  %218 = xor i1 %217, true
  %219 = xor i1 %218, true
  %220 = zext i1 %219 to i32
  %221 = sext i32 %220 to i64
  %222 = icmp ne i64 %221, 0
  br i1 %222, label %223, label %224

223:                                              ; preds = %215
  store i32 16, ptr %43, align 4
  store i32 9, ptr %47, align 4
  br label %233

224:                                              ; preds = %215
  %225 = load i32, ptr %40, align 4
  %226 = load i32, ptr %38, align 4
  %227 = icmp eq i32 %225, %226
  br i1 %227, label %231, label %228

228:                                              ; preds = %224
  %229 = load i32, ptr %38, align 4
  %230 = icmp eq i32 %229, -1
  br label %231

231:                                              ; preds = %228, %224
  %232 = phi i1 [ true, %224 ], [ %230, %228 ]
  call void @llvm.assume(i1 %232)
  br label %233

233:                                              ; preds = %231, %223, %112, %73
  %234 = load i32, ptr %47, align 4
  %235 = icmp ne i32 %234, 0
  %236 = xor i1 %235, true
  %237 = xor i1 %236, true
  %238 = zext i1 %237 to i32
  %239 = sext i32 %238 to i64
  %240 = icmp ne i64 %239, 0
  br i1 %240, label %241, label %247

241:                                              ; preds = %233
  %242 = load i32, ptr %47, align 4
  %243 = load i32, ptr %40, align 4
  %244 = load ptr, ptr %44, align 8
  %245 = load i32, ptr %43, align 4
  %246 = load ptr, ptr %42, align 8
  call void @zend_wrong_parameter_error(i32 noundef %242, i32 noundef %243, ptr noundef %244, i32 noundef %245, ptr noundef %246)
  br label %297

247:                                              ; preds = %233
  br label %248

248:                                              ; preds = %247
  %249 = load ptr, ptr %31, align 8
  %250 = load i64, ptr %33, align 8
  %251 = call noalias ptr @_estrndup(ptr noundef %249, i64 noundef %250)
  store ptr %251, ptr %32, align 8
  %252 = load ptr, ptr %32, align 8
  %253 = load i64, ptr %33, align 8
  %254 = call i64 @php_dirname(ptr noundef %252, i64 noundef %253)
  %255 = load ptr, ptr %32, align 8
  %256 = call i32 @php_check_open_basedir(ptr noundef %255)
  %257 = icmp ne i32 %256, 0
  br i1 %257, label %258, label %266

258:                                              ; preds = %248
  %259 = load ptr, ptr %32, align 8
  call void @_efree(ptr noundef %259)
  br label %260

260:                                              ; preds = %258
  br label %261

261:                                              ; preds = %260
  %262 = load ptr, ptr %30, align 8
  %263 = getelementptr inbounds %struct._zval_struct, ptr %262, i32 0, i32 1
  store i32 2, ptr %263, align 8
  br label %264

264:                                              ; preds = %261
  br label %297

265:                                              ; No predecessors!
  br label %266

266:                                              ; preds = %265, %248
  %267 = load ptr, ptr %31, align 8
  %268 = call i32 @lstat(ptr noundef %267, ptr noundef %34) #10
  store i32 %268, ptr %35, align 4
  %269 = load i32, ptr %35, align 4
  %270 = icmp eq i32 %269, -1
  br i1 %270, label %271, label %285

271:                                              ; preds = %266
  %272 = call ptr @__errno_location() #12
  %273 = load i32, ptr %272, align 4
  %274 = call ptr @strerror(i32 noundef %273) #10
  call void (ptr, i32, ptr, ...) @php_error_docref(ptr noundef null, i32 noundef 2, ptr noundef @.str, ptr noundef %274)
  %275 = load ptr, ptr %32, align 8
  call void @_efree(ptr noundef %275)
  br label %276

276:                                              ; preds = %271
  br label %277

277:                                              ; preds = %276
  %278 = load ptr, ptr %30, align 8
  store ptr %278, ptr %48, align 8
  %279 = load ptr, ptr %48, align 8
  %280 = getelementptr inbounds %struct._zval_struct, ptr %279, i32 0, i32 0
  store i64 -1, ptr %280, align 8
  %281 = load ptr, ptr %48, align 8
  %282 = getelementptr inbounds %struct._zval_struct, ptr %281, i32 0, i32 1
  store i32 4, ptr %282, align 8
  br label %283

283:                                              ; preds = %277
  br label %297

284:                                              ; No predecessors!
  br label %285

285:                                              ; preds = %284, %266
  %286 = load ptr, ptr %32, align 8
  call void @_efree(ptr noundef %286)
  br label %287

287:                                              ; preds = %285
  br label %288

288:                                              ; preds = %287
  %289 = load ptr, ptr %30, align 8
  store ptr %289, ptr %49, align 8
  %290 = getelementptr inbounds %struct.stat, ptr %34, i32 0, i32 0
  %291 = load i64, ptr %290, align 8
  %292 = load ptr, ptr %49, align 8
  %293 = getelementptr inbounds %struct._zval_struct, ptr %292, i32 0, i32 0
  store i64 %291, ptr %293, align 8
  %294 = load ptr, ptr %49, align 8
  %295 = getelementptr inbounds %struct._zval_struct, ptr %294, i32 0, i32 1
  store i32 4, ptr %295, align 8
  br label %296

296:                                              ; preds = %288
  br label %297

297:                                              ; preds = %296, %283, %264, %241
  ret void
}