; Function Attrs: nounwind uwtable
define hidden void @zif_linkinfo(ptr noundef %0, ptr nocapture noundef writeonly %1) local_unnamed_addr #0 {
  %3 = alloca ptr, align 8
  %4 = alloca %struct.stat, align 8
  call void @llvm.memset.p0.i64(ptr noundef nonnull align 8 dereferenceable(144) %4, i8 0, i64 144, i1 false)
  %5 = getelementptr inbounds i8, ptr %0, i64 44
  %6 = load i32, ptr %5, align 4
  %cond = icmp eq i32 %6, 1
  br i1 %cond, label %8, label %7

7:                                                ; preds = %2
  tail call void @zend_wrong_parameters_count_error(i32 noundef 1, i32 noundef 1) #9
  br label %.thread116

8:                                                ; preds = %2
  %9 = getelementptr inbounds i8, ptr %0, i64 80
  %10 = getelementptr inbounds i8, ptr %0, i64 88
  %11 = load i8, ptr %10, align 8
  %12 = icmp eq i8 %11, 6
  br i1 %12, label %.critedge, label %14

.critedge:                                        ; preds = %8
  %13 = load ptr, ptr %9, align 8
  store ptr %13, ptr %3, align 8
  br label %16

14:                                               ; preds = %8
  %15 = call zeroext i1 @zend_parse_arg_str_slow(ptr noundef nonnull %9, ptr noundef nonnull %3, i32 noundef 1) #9
  br i1 %15, label %thread-pre-split, label %.thread116

thread-pre-split:                                 ; preds = %14
  %.pr = load ptr, ptr %3, align 8
  br label %16

16:                                               ; preds = %thread-pre-split, %.critedge
  %17 = phi ptr [ %.pr, %thread-pre-split ], [ %13, %.critedge ]
  %.not97 = icmp eq ptr %17, null
  br i1 %.not97, label %._crit_edge, label %18

._crit_edge:                                      ; preds = %16
  %.pre = load i64, ptr inttoptr (i64 16 to ptr), align 16
  br label %23

18:                                               ; preds = %16
  %19 = getelementptr inbounds i8, ptr %17, i64 24
  %20 = getelementptr inbounds i8, ptr %17, i64 16
  %21 = load i64, ptr %20, align 8
  %22 = call i64 @strlen(ptr noundef nonnull dereferenceable(1) %19) #10
  %.not98 = icmp eq i64 %21, %22
  br i1 %.not98, label %23, label %.thread116

.thread116:                                       ; preds = %14, %18, %7
  %.087.ph = phi ptr [ null, %7 ], [ %9, %18 ], [ %9, %14 ]
  %.086.ph = phi i32 [ 0, %7 ], [ 16, %18 ], [ 16, %14 ]
  %.085.ph = phi i32 [ 0, %7 ], [ 1, %18 ], [ 1, %14 ]
  %.083.ph = phi i32 [ 1, %7 ], [ 9, %18 ], [ 9, %14 ]
  call void @zend_wrong_parameter_error(i32 noundef %.083.ph, i32 noundef %.085.ph, ptr noundef null, i32 noundef %.086.ph, ptr noundef %.087.ph) #9
  br label %42

23:                                               ; preds = %._crit_edge, %18
  %24 = phi i64 [ %.pre, %._crit_edge ], [ %21, %18 ]
  %25 = getelementptr inbounds i8, ptr %17, i64 24
  %26 = call noalias ptr @_estrndup(ptr noundef nonnull %25, i64 noundef %24) #9
  %27 = call i64 @php_dirname(ptr noundef %26, i64 noundef %24) #9
  %28 = call i32 @php_check_open_basedir(ptr noundef %26) #9
  %.not100 = icmp eq i32 %28, 0
  br i1 %.not100, label %31, label %29

29:                                               ; preds = %23
  call void @_efree(ptr noundef %26) #9
  %30 = getelementptr inbounds i8, ptr %1, i64 8
  store i32 2, ptr %30, align 8
  br label %42

31:                                               ; preds = %23
  %32 = call i32 @lstat(ptr noundef nonnull %25, ptr noundef nonnull %4) #9
  %33 = icmp eq i32 %32, -1
  br i1 %33, label %34, label %39

34:                                               ; preds = %31
  %35 = tail call ptr @__errno_location() #11
  %36 = load i32, ptr %35, align 4
  %37 = call ptr @strerror(i32 noundef %36) #9
  call void (ptr, i32, ptr, ...) @php_error_docref(ptr noundef null, i32 noundef 2, ptr noundef nonnull @.str, ptr noundef %37) #9
  call void @_efree(ptr noundef %26) #9
  store i64 -1, ptr %1, align 8
  %38 = getelementptr inbounds i8, ptr %1, i64 8
  store i32 4, ptr %38, align 8
  br label %42

39:                                               ; preds = %31
  call void @_efree(ptr noundef %26) #9
  %40 = load i64, ptr %4, align 8
  store i64 %40, ptr %1, align 8
  %41 = getelementptr inbounds i8, ptr %1, i64 8
  store i32 4, ptr %41, align 8
  br label %42

42:                                               ; preds = %39, %34, %29, %.thread116
  ret void
}